target datalayout = "e-m:e-p270:32:32-p271:32:32-p272:64:64-i64:64-i128:128-f80:128-n8:16:32:64-S128"
target triple = "x86_64-pc-linux-gnu"

%struct.evhttp_connection = type { %struct.anon, ptr, %struct.event, ptr, i16, ptr, i16, ptr, i64, i64, i32, %struct.timeval, %struct.timeval, %struct.timeval, i32, i32, %struct.timeval, i32, ptr, %struct.evcon_requestq, ptr, ptr, ptr, ptr, %struct.event_callback, ptr, ptr, i32, ptr }
%struct.anon = type { ptr, ptr }
%struct.event = type { %struct.event_callback, %union.anon.1, i32, i16, i16, ptr, %union.anon.3, %struct.timeval }
%union.anon.1 = type { %struct.anon.2 }
%struct.anon.2 = type { ptr, ptr }
%union.anon.3 = type { %struct.anon.4 }
%struct.anon.4 = type { %struct.anon.5, %struct.timeval }
%struct.anon.5 = type { ptr, ptr }
%struct.timeval = type { i64, i64 }
%struct.evcon_requestq = type { ptr, ptr }
%struct.event_callback = type { %struct.anon.0, i16, i8, i8, %union.anon, ptr }
%struct.anon.0 = type { ptr, ptr }
%union.anon = type { ptr }

@.str.8 = private unnamed_addr constant [25 x i8] c"%s: unix socket too long\00", align 1
@__func__.evhttp_connection_base_bufferevent_unix_new = private unnamed_addr constant [44 x i8] c"evhttp_connection_base_bufferevent_unix_new\00", align 1
@.str.9 = private unnamed_addr constant [18 x i8] c"%s: strdup failed\00", align 1

; Function Attrs: nounwind uwtable
define ptr @evhttp_connection_base_bufferevent_unix_new(ptr noundef %0, ptr noundef %1, ptr noundef %2) #0 {
  %4 = alloca ptr, align 8
  %5 = alloca ptr, align 8
  %6 = alloca ptr, align 8
  %7 = alloca ptr, align 8
  %8 = alloca ptr, align 8
  %9 = alloca i32, align 4
  store ptr %0, ptr %5, align 8
  store ptr %1, ptr %6, align 8
  store ptr %2, ptr %7, align 8
  call void @llvm.lifetime.start.p0(i64 8, ptr %8) #11
  %10 = load ptr, ptr %7, align 8
  %11 = call i64 @strlen(ptr noundef %10) #12
  %12 = icmp uge i64 %11, 108
  br i1 %12, label %13, label %14

13:                                               ; preds = %3
  call void (ptr, ...) @event_warn(ptr noundef @.str.8, ptr noundef @__func__.evhttp_connection_base_bufferevent_unix_new)
  store ptr null, ptr %4, align 8
  store i32 1, ptr %9, align 4
  br label %38

14:                                               ; preds = %3
  %15 = load ptr, ptr %5, align 8
  %16 = load ptr, ptr %6, align 8
  %17 = call ptr @evhttp_connection_new_(ptr noundef %15, ptr noundef %16)
  store ptr %17, ptr %8, align 8
  %18 = load ptr, ptr %8, align 8
  %19 = icmp eq ptr %18, null
  br i1 %19, label %20, label %21

20:                                               ; preds = %14
  br label %32

21:                                               ; preds = %14
  %22 = load ptr, ptr %7, align 8
  %23 = call ptr @event_mm_strdup_(ptr noundef %22)
  %24 = load ptr, ptr %8, align 8
  %25 = getelementptr inbounds nuw %struct.evhttp_connection, ptr %24, i32 0, i32 7
  store ptr %23, ptr %25, align 8
  %26 = icmp eq ptr %23, null
  br i1 %26, label %27, label %28

27:                                               ; preds = %21
  call void (ptr, ...) @event_warn(ptr noundef @.str.9, ptr noundef @__func__.evhttp_connection_base_bufferevent_unix_new)
  br label %32

28:                                               ; preds = %21
  %29 = load ptr, ptr %8, align 8
  %30 = getelementptr inbounds nuw %struct.evhttp_connection, ptr %29, i32 0, i32 27
  store i32 1, ptr %30, align 8
  %31 = load ptr, ptr %8, align 8
  store ptr %31, ptr %4, align 8
  store i32 1, ptr %9, align 4
  br label %38

32:                                               ; preds = %27, %20
  %33 = load ptr, ptr %8, align 8
  %34 = icmp ne ptr %33, null
  br i1 %34, label %35, label %37

35:                                               ; preds = %32
  %36 = load ptr, ptr %8, align 8
  call void @evhttp_connection_free(ptr noundef %36)
  br label %37

37:                                               ; preds = %35, %32
  store ptr null, ptr %4, align 8
  store i32 1, ptr %9, align 4
  br label %38

38:                                               ; preds = %37, %28, %13
  call void @llvm.lifetime.end.p0(i64 8, ptr %8) #11
  %39 = load ptr, ptr %4, align 8
  ret ptr %39
}