; Function Attrs: nounwind uwtable
define ptr @evhttp_connection_base_bufferevent_unix_new(ptr noundef %0, ptr noundef %1, ptr noundef %2) local_unnamed_addr #0 {
  %4 = tail call i64 @strlen(ptr noundef nonnull dereferenceable(1) %2) #17
  %5 = icmp ugt i64 %4, 107
  br i1 %5, label %6, label %7

6:                                                ; preds = %3
  tail call void (ptr, ...) @event_warn(ptr noundef nonnull @.str.8, ptr noundef nonnull @__func__.evhttp_connection_base_bufferevent_unix_new) #18
  br label %16

7:                                                ; preds = %3
  %8 = tail call fastcc ptr @evhttp_connection_new_(ptr noundef %0, ptr noundef %1)
  %cond = icmp eq ptr %8, null
  br i1 %cond, label %16, label %9

9:                                                ; preds = %7
  %10 = tail call ptr @event_mm_strdup_(ptr noundef nonnull %2) #18
  %11 = getelementptr inbounds nuw i8, ptr %8, i64 176
  store ptr %10, ptr %11, align 8
  %12 = icmp eq ptr %10, null
  br i1 %12, label %15, label %13

13:                                               ; preds = %9
  %14 = getelementptr inbounds nuw i8, ptr %8, i64 400
  store i32 1, ptr %14, align 8
  br label %16

15:                                               ; preds = %9
  tail call void (ptr, ...) @event_warn(ptr noundef nonnull @.str.9, ptr noundef nonnull @__func__.evhttp_connection_base_bufferevent_unix_new) #18
  tail call void @evhttp_connection_free(ptr noundef nonnull %8)
  br label %16

16:                                               ; preds = %7, %15, %13, %6
  %.0 = phi ptr [ null, %6 ], [ %8, %13 ], [ null, %7 ], [ null, %15 ]
  ret ptr %.0
}